; ModuleID = 'source-C-CXX/12/728.c'
source_filename = "source-C-CXX/12/728.c"
target datalayout = "e-m:e-p270:32:32-p271:32:32-p272:64:64-i64:64-f80:128-n8:16:32:64-S128"
target triple = "x86_64-pc-linux-gnu"

%struct._IO_FILE = type { i32, i8*, i8*, i8*, i8*, i8*, i8*, i8*, i8*, i8*, i8*, i8*, %struct._IO_marker*, %struct._IO_FILE*, i32, i32, i64, i16, i8, [1 x i8], i8*, i64, %struct._IO_codecvt*, %struct._IO_wide_data*, %struct._IO_FILE*, i8*, i64, i32, [20 x i8] }
%struct._IO_marker = type opaque
%struct._IO_codecvt = type opaque
%struct._IO_wide_data = type opaque

@.str = private unnamed_addr constant [3 x i8] c"%d\00", align 1
@.str.1 = private unnamed_addr constant [4 x i8] c" %d\00", align 1
@stdin = external local_unnamed_addr global %struct._IO_FILE*, align 8

; Function Attrs: nofree nounwind sspstrong uwtable
define dso_local i32 @main() local_unnamed_addr #0 {
  %1 = alloca i32, align 4
  %2 = alloca [20000 x i32], align 16
  %3 = alloca [20000 x i32], align 16
  %4 = bitcast [20000 x i32]* %3 to i8*
  %5 = bitcast i32* %1 to i8*
  call void @llvm.lifetime.start.p0i8(i64 4, i8* nonnull %5) #4
  %6 = bitcast [20000 x i32]* %2 to i8*
  call void @llvm.lifetime.start.p0i8(i64 80000, i8* nonnull %6) #4
  call void @llvm.lifetime.start.p0i8(i64 80000, i8* nonnull %4) #4
  %7 = call i32 (i8*, ...) @__isoc99_scanf(i8* getelementptr inbounds ([3 x i8], [3 x i8]* @.str, i64 0, i64 0), i32* nonnull %1)
  %8 = load i32, i32* %1, align 4, !tbaa !5
  %9 = icmp sgt i32 %8, 0
  br i1 %9, label %15, label %23

10:                                               ; preds = %15
  %11 = icmp sgt i32 %20, 0
  br i1 %11, label %12, label %23

12:                                               ; preds = %10
  %13 = zext i32 %20 to i64
  %14 = shl nuw nsw i64 %13, 2
  call void @llvm.memset.p0i8.i64(i8* nonnull align 16 %4, i8 0, i64 %14, i1 false)
  br label %23

15:                                               ; preds = %0, %15
  %16 = phi i64 [ %19, %15 ], [ 0, %0 ]
  %17 = getelementptr inbounds [20000 x i32], [20000 x i32]* %2, i64 0, i64 %16
  %18 = call i32 (i8*, ...) @__isoc99_scanf(i8* getelementptr inbounds ([3 x i8], [3 x i8]* @.str, i64 0, i64 0), i32* nonnull %17)
  %19 = add nuw nsw i64 %16, 1
  %20 = load i32, i32* %1, align 4, !tbaa !5
  %21 = sext i32 %20 to i64
  %22 = icmp slt i64 %19, %21
  br i1 %22, label %15, label %10, !llvm.loop !9

23:                                               ; preds = %0, %12, %10
  %24 = getelementptr inbounds [20000 x i32], [20000 x i32]* %2, i64 0, i64 0
  %25 = load i32, i32* %24, align 16, !tbaa !5
  %26 = call i32 (i8*, ...) @printf(i8* nonnull dereferenceable(1) getelementptr inbounds ([3 x i8], [3 x i8]* @.str, i64 0, i64 0), i32 %25)
  %27 = load i32, i32* %1, align 4, !tbaa !5
  %28 = icmp sgt i32 %27, 1
  br i1 %28, label %29, label %67

29:                                               ; preds = %23
  %30 = zext i32 %27 to i64
  br label %31

31:                                               ; preds = %29, %48
  %32 = phi i64 [ 1, %29 ], [ %49, %48 ]
  %33 = getelementptr inbounds [20000 x i32], [20000 x i32]* %2, i64 0, i64 %32
  %34 = load i32, i32* %33, align 4, !tbaa !5
  br label %38

35:                                               ; preds = %48
  br i1 %28, label %51, label %67

36:                                               ; preds = %38
  %37 = icmp eq i64 %43, %32
  br i1 %37, label %48, label %38, !llvm.loop !11

38:                                               ; preds = %31, %36
  %39 = phi i64 [ 0, %31 ], [ %43, %36 ]
  %40 = getelementptr inbounds [20000 x i32], [20000 x i32]* %2, i64 0, i64 %39
  %41 = load i32, i32* %40, align 4, !tbaa !5
  %42 = icmp eq i32 %34, %41
  %43 = add nuw nsw i64 %39, 1
  br i1 %42, label %44, label %36

44:                                               ; preds = %38
  %45 = getelementptr inbounds [20000 x i32], [20000 x i32]* %3, i64 0, i64 %32
  %46 = load i32, i32* %45, align 4, !tbaa !5
  %47 = add nsw i32 %46, 1
  store i32 %47, i32* %45, align 4, !tbaa !5
  br label %48

48:                                               ; preds = %36, %44
  %49 = add nuw nsw i64 %32, 1
  %50 = icmp eq i64 %49, %30
  br i1 %50, label %35, label %31, !llvm.loop !12

51:                                               ; preds = %35, %62
  %52 = phi i32 [ %63, %62 ], [ %27, %35 ]
  %53 = phi i64 [ %64, %62 ], [ 1, %35 ]
  %54 = getelementptr inbounds [20000 x i32], [20000 x i32]* %3, i64 0, i64 %53
  %55 = load i32, i32* %54, align 4, !tbaa !5
  %56 = icmp eq i32 %55, 0
  br i1 %56, label %57, label %62

57:                                               ; preds = %51
  %58 = getelementptr inbounds [20000 x i32], [20000 x i32]* %2, i64 0, i64 %53
  %59 = load i32, i32* %58, align 4, !tbaa !5
  %60 = call i32 (i8*, ...) @printf(i8* nonnull dereferenceable(1) getelementptr inbounds ([4 x i8], [4 x i8]* @.str.1, i64 0, i64 0), i32 %59)
  %61 = load i32, i32* %1, align 4, !tbaa !5
  br label %62

62:                                               ; preds = %51, %57
  %63 = phi i32 [ %52, %51 ], [ %61, %57 ]
  %64 = add nuw nsw i64 %53, 1
  %65 = sext i32 %63 to i64
  %66 = icmp slt i64 %64, %65
  br i1 %66, label %51, label %67, !llvm.loop !13

67:                                               ; preds = %62, %23, %35
  %68 = load %struct._IO_FILE*, %struct._IO_FILE** @stdin, align 8, !tbaa !14
  %69 = call i32 @getc(%struct._IO_FILE* %68) #4
  %70 = load %struct._IO_FILE*, %struct._IO_FILE** @stdin, align 8, !tbaa !14
  %71 = call i32 @getc(%struct._IO_FILE* %70) #4
  %72 = load %struct._IO_FILE*, %struct._IO_FILE** @stdin, align 8, !tbaa !14
  %73 = call i32 @getc(%struct._IO_FILE* %72) #4
  %74 = load %struct._IO_FILE*, %struct._IO_FILE** @stdin, align 8, !tbaa !14
  %75 = call i32 @getc(%struct._IO_FILE* %74) #4
  call void @llvm.lifetime.end.p0i8(i64 80000, i8* nonnull %4) #4
  call void @llvm.lifetime.end.p0i8(i64 80000, i8* nonnull %6) #4
  call void @llvm.lifetime.end.p0i8(i64 4, i8* nonnull %5) #4
  ret i32 0
}

; Function Attrs: argmemonly mustprogress nofree nosync nounwind willreturn
declare void @llvm.lifetime.start.p0i8(i64 immarg, i8* nocapture) #1

; Function Attrs: nofree nounwind
declare noundef i32 @__isoc99_scanf(i8* nocapture noundef readonly, ...) local_unnamed_addr #2

; Function Attrs: nofree nounwind
declare noundef i32 @printf(i8* nocapture noundef readonly, ...) local_unnamed_addr #2

; Function Attrs: argmemonly mustprogress nofree nosync nounwind willreturn
declare void @llvm.lifetime.end.p0i8(i64 immarg, i8* nocapture) #1

; Function Attrs: nofree nounwind
declare noundef i32 @getc(%struct._IO_FILE* nocapture noundef) local_unnamed_addr #2

; Function Attrs: argmemonly nofree nounwind willreturn writeonly
declare void @llvm.memset.p0i8.i64(i8* nocapture writeonly, i8, i64, i1 immarg) #3


!llvm.module.flags = !{!0, !1, !2, !3}
!llvm.ident = !{!4}

!0 = !{i32 1, !"wchar_size", i32 4}
!1 = !{i32 7, !"PIC Level", i32 2}
!2 = !{i32 7, !"PIE Level", i32 2}
!3 = !{i32 7, !"uwtable", i32 1}
!4 = !{!"clang version 13.0.0"}
!5 = !{!6, !6, i64 0}
!6 = !{!"int", !7, i64 0}
!7 = !{!"omnipotent char", !8, i64 0}
!8 = !{!"Simple C/C++ TBAA"}
!9 = distinct !{!9, !10}
!10 = !{!"llvm.loop.mustprogress"}
!11 = distinct !{!11, !10}
!12 = distinct !{!12, !10}
!13 = distinct !{!13, !10}
!14 = !{!15, !15, i64 0}
!15 = !{!"any pointer", !7, i64 0}
